target datalayout = "e-m:e-p270:32:32-p271:32:32-p272:64:64-i64:64-i128:128-f80:128-n8:16:32:64-S128"
target triple = "x86_64-pc-linux-gnu"

%struct.OSSL_TIME = type { i64 }
%struct.ssl_session_st = type { i32, i64, [64 x i8], [512 x i8], i64, [32 x i8], i64, [32 x i8], ptr, ptr, i32, ptr, ptr, ptr, i64, %struct.OSSL_TIME, %struct.OSSL_TIME, %struct.OSSL_TIME, i32, ptr, i64, i32, %struct.crypto_ex_data_st, %struct.anon, ptr, ptr, i64, i32, ptr, ptr, ptr, %struct.CRYPTO_REF_COUNT }
%struct.crypto_ex_data_st = type { ptr, ptr }
%struct.anon = type { ptr, ptr, i64, i64, i32, i32, ptr, i64, i8 }
%struct.CRYPTO_REF_COUNT = type { i32 }
%struct.ssl_st = type { i32, ptr, ptr, ptr, %struct.CRYPTO_REF_COUNT, ptr, %struct.crypto_ex_data_st }
%struct.ssl_connection_st = type { %struct.ssl_st, ptr, i32, ptr, ptr, ptr, i32, ptr, i32, i32, i32, i32, %struct.OSSL_TIME, %struct.OSSL_TIME, %struct.ossl_statem_st, i32, ptr, ptr, i64, i64, i64, %struct.ossl_quic_tls_callbacks_st, ptr, ptr, %struct.anon.0, ptr, ptr, ptr, i32, ptr, %struct.ssl_dane_st, ptr, ptr, ptr, ptr, i32, [64 x i8], [64 x i8], [64 x i8], [64 x i8], [64 x i8], [64 x i8], [64 x i8], [64 x i8], [64 x i8], [64 x i8], [64 x i8], [64 x i8], ptr, [64 x i8], i64, i32, i64, [32 x i8], ptr, ptr, ptr, i64, ptr, [32 x i8], i64, i32, ptr, ptr, i32, i32, ptr, ptr, ptr, ptr, ptr, i64, ptr, ptr, i64, i32, i32, i32, i64, i32, i32, i64, i64, i64, %struct.anon.2, ptr, i32, ptr, ptr, ptr, i32, ptr, ptr, ptr, i32, i32, i32, i32, ptr, i64, i32, ptr, %struct.srp_ctx_st, ptr, %struct.record_layer_st, ptr, ptr, ptr, ptr, i64, i32, i32, i32, i64, i64, i64, ptr, ptr, ptr, ptr, ptr, i64, ptr, i64, ptr, i64 }
%struct.ossl_statem_st = type { i32, i32, i32, i32, i32, i32, i32, i32, i32, i32, i32, i32, i32, ptr, ptr, ptr, i8 }
%struct.ossl_quic_tls_callbacks_st = type { ptr, ptr, ptr, ptr, ptr, ptr }
%struct.anon.0 = type { i64, [32 x i8], [32 x i8], ptr, ptr, i32, i32, i32, i32, [2 x i8], i32, i32, i32, i32, %struct.anon.1, [64 x i8], i64, [64 x i8], i64, i32, i32, ptr, i64, ptr, i64, i32, i8, i8, i16, ptr, i16 }
%struct.anon.1 = type { [128 x i8], i64, [128 x i8], i64, i64, i32, ptr, ptr, [4 x ptr], [4 x i16], i64, i32, ptr, i64, ptr, i64, ptr, ptr, ptr, i32, i64, ptr, i32, ptr, i64, ptr, i64, ptr, i64, ptr, ptr, ptr, ptr, i64, i64, ptr, ptr, i32, i32, i32, i32 }
%struct.ssl_dane_st = type { ptr, ptr, ptr, ptr, ptr, i32, i32, i32, i64 }
%struct.anon.2 = type { [29 x i8], ptr, ptr, ptr, i32, ptr, i16, i32, %struct.anon.3, i32, i32, i64, ptr, i64, ptr, i64, ptr, i64, ptr, i64, ptr, i64, ptr, ptr, ptr, ptr, ptr, ptr, ptr, i64, ptr, i64, i32, i32, i32, i32, ptr, i64, i32, i8, i32, [4 x i32], i32, i8, i8, i8, i8 }
%struct.anon.3 = type { ptr, ptr, ptr, i64 }
%struct.srp_ctx_st = type { ptr, ptr, ptr, ptr, ptr, ptr, ptr, ptr, ptr, ptr, ptr, ptr, ptr, ptr, i32, i64 }
%struct.record_layer_st = type { ptr, ptr, ptr, ptr, ptr, ptr, ptr, ptr, i64, i32, i64, [4 x i8], i64, i64, i8, ptr, i32, ptr, ptr, ptr, i64, i64, i64, i64, [32 x %struct.tls_record_st] }
%struct.tls_record_st = type { ptr, i32, i8, ptr, ptr, i64, i64, i16, [8 x i8] }
%struct.ssl_ctx_st = type { ptr, ptr, ptr, ptr, ptr, ptr, ptr, i64, ptr, ptr, i32, %struct.OSSL_TIME, ptr, ptr, ptr, %struct.anon.4, %struct.CRYPTO_REF_COUNT, ptr, ptr, ptr, ptr, ptr, ptr, ptr, ptr, ptr, %struct.crypto_ex_data_st, ptr, ptr, ptr, ptr, ptr, ptr, ptr, i64, i32, i32, i32, i64, ptr, ptr, i32, ptr, ptr, i32, i64, [32 x i8], ptr, ptr, ptr, i32, ptr, ptr, ptr, i64, i64, i64, i64, ptr, ptr, ptr, ptr, ptr, %struct.anon.5, ptr, ptr, ptr, ptr, %struct.srp_ctx_st, %struct.dane_ctx_st, ptr, ptr, ptr, ptr, i32, i32, ptr, ptr, i64, i64, ptr, ptr, ptr, i64, ptr, ptr, i32, ptr, ptr, ptr, [14 x i32], [24 x ptr], [14 x ptr], [14 x i64], i64, ptr, ptr, ptr, i64, i64, ptr, i64, i64, i32, i32, i32, i32, ptr, i64, ptr, i64, i64, ptr, ptr }
%struct.anon.4 = type { i32, i32, i32, i32, i32, i32, i32, i32, i32, i32, i32 }
%struct.anon.5 = type { ptr, ptr, [16 x i8], ptr, ptr, ptr, ptr, ptr, i32, i8, i64, ptr, i64, ptr, i64, ptr, i64, ptr, ptr, i64, ptr, ptr, ptr, i64, ptr, ptr, ptr, ptr, [32 x i8] }
%struct.dane_ctx_st = type { ptr, ptr, i8, i64 }

; Function Attrs: inlinehint nounwind uwtable
define internal void @ssl_tsan_unlock(ptr noundef %0) #2 {
  %2 = alloca ptr, align 8
  store ptr %0, ptr %2, align 8, !tbaa !149
  ret void
}

; Function Attrs: inlinehint nounwind uwtable
define internal i32 @ssl_tsan_lock(ptr noundef %0) #2 {
  %2 = alloca ptr, align 8
  store ptr %0, ptr %2, align 8, !tbaa !149
  ret i32 1
}

; Function Attrs: inlinehint nounwind uwtable
define internal i32 @CRYPTO_UP_REF(ptr noundef %0, ptr noundef %1) #2 {
  %3 = alloca ptr, align 8
  %4 = alloca ptr, align 8
  %5 = alloca i32, align 4
  %6 = alloca i32, align 4
  store ptr %0, ptr %3, align 8, !tbaa !78
  store ptr %1, ptr %4, align 8, !tbaa !102
  %7 = load ptr, ptr %3, align 8, !tbaa !78
  %8 = getelementptr inbounds nuw %struct.CRYPTO_REF_COUNT, ptr %7, i32 0, i32 0
  store i32 1, ptr %5, align 4, !tbaa !11
  %9 = load i32, ptr %5, align 4
  %10 = atomicrmw add ptr %8, i32 %9 monotonic, align 4
  store i32 %10, ptr %6, align 4
  %11 = load i32, ptr %6, align 4, !tbaa !11
  %12 = add nsw i32 %11, 1
  %13 = load ptr, ptr %4, align 8, !tbaa !102
  store i32 %12, ptr %13, align 4, !tbaa !11
  ret i32 1
}

; Function Attrs: inlinehint nounwind uwtable
define internal void @ssl_tsan_counter(ptr noundef %0, ptr noundef %1) #2 {
  %3 = alloca ptr, align 8
  %4 = alloca ptr, align 8
  %5 = alloca i32, align 4
  %6 = alloca i32, align 4
  store ptr %0, ptr %3, align 8, !tbaa !149
  store ptr %1, ptr %4, align 8, !tbaa !78
  %7 = load ptr, ptr %3, align 8, !tbaa !149
  %8 = call i32 @ssl_tsan_lock(ptr noundef %7)
  %9 = icmp ne i32 %8, 0
  br i1 %9, label %10, label %15

10:                                               ; preds = %2
  %11 = load ptr, ptr %4, align 8, !tbaa !78
  store i32 1, ptr %5, align 4, !tbaa !11
  %12 = load i32, ptr %5, align 4
  %13 = atomicrmw add ptr %11, i32 %12 monotonic, align 4
  store i32 %13, ptr %6, align 4
  %14 = load ptr, ptr %3, align 8, !tbaa !149
  call void @ssl_tsan_unlock(ptr noundef %14)
  br label %15

15:                                               ; preds = %10, %2
  ret void
}

; Function Attrs: nounwind uwtable
define i32 @SSL_SESSION_up_ref(ptr noundef %0) #0 {
  %2 = alloca i32, align 4
  %3 = alloca ptr, align 8
  %4 = alloca i32, align 4
  %5 = alloca i32, align 4
  store ptr %0, ptr %3, align 8, !tbaa !3
  call void @llvm.lifetime.start.p0(i64 4, ptr %4) #9
  %6 = load ptr, ptr %3, align 8, !tbaa !3
  %7 = getelementptr inbounds nuw %struct.ssl_session_st, ptr %6, i32 0, i32 31
  %8 = call i32 @CRYPTO_UP_REF(ptr noundef %7, ptr noundef %4)
  %9 = icmp sle i32 %8, 0
  br i1 %9, label %10, label %11

10:                                               ; preds = %1
  store i32 0, ptr %2, align 4
  store i32 1, ptr %5, align 4
  br label %15

11:                                               ; preds = %1
  %12 = load i32, ptr %4, align 4, !tbaa !11
  %13 = icmp sgt i32 %12, 1
  %14 = select i1 %13, i32 1, i32 0
  store i32 %14, ptr %2, align 4
  store i32 1, ptr %5, align 4
  br label %15

15:                                               ; preds = %11, %10
  call void @llvm.lifetime.end.p0(i64 4, ptr %4) #9
  %16 = load i32, ptr %2, align 4
  ret i32 %16
}

; Function Attrs: inlinehint nounwind uwtable
define internal ptr @lh_SSL_SESSION_retrieve(ptr noundef %0, ptr noundef %1) #2 {
  %3 = alloca ptr, align 8
  %4 = alloca ptr, align 8
  store ptr %0, ptr %3, align 8, !tbaa !148
  store ptr %1, ptr %4, align 8, !tbaa !3
  %5 = load ptr, ptr %3, align 8, !tbaa !148
  %6 = load ptr, ptr %4, align 8, !tbaa !3
  %7 = call ptr @OPENSSL_LH_retrieve(ptr noundef %5, ptr noundef %6)
  ret ptr %7
}

; Function Attrs: nounwind uwtable
define ptr @lookup_sess_in_cache(ptr noundef %0, ptr noundef %1, i64 noundef %2) #0 {
  %4 = alloca ptr, align 8
  %5 = alloca ptr, align 8
  %6 = alloca ptr, align 8
  %7 = alloca i64, align 8
  %8 = alloca ptr, align 8
  %9 = alloca %struct.ssl_session_st, align 8
  %10 = alloca i32, align 4
  %11 = alloca i32, align 4
  store ptr %0, ptr %5, align 8, !tbaa !25
  store ptr %1, ptr %6, align 8, !tbaa !127
  store i64 %2, ptr %7, align 8, !tbaa !9
  call void @llvm.lifetime.start.p0(i64 8, ptr %8) #9
  store ptr null, ptr %8, align 8, !tbaa !3
  %12 = load ptr, ptr %5, align 8, !tbaa !25
  %13 = getelementptr inbounds nuw %struct.ssl_connection_st, ptr %12, i32 0, i32 91
  %14 = load ptr, ptr %13, align 8, !tbaa !109
  %15 = getelementptr inbounds nuw %struct.ssl_ctx_st, ptr %14, i32 0, i32 10
  %16 = load i32, ptr %15, align 8, !tbaa !144
  %17 = and i32 %16, 256
  %18 = icmp eq i32 %17, 0
  br i1 %18, label %19, label %84

19:                                               ; preds = %3
  call void @llvm.lifetime.start.p0(i64 928, ptr %9) #9
  %20 = load ptr, ptr %5, align 8, !tbaa !25
  %21 = getelementptr inbounds nuw %struct.ssl_connection_st, ptr %20, i32 0, i32 2
  %22 = load i32, ptr %21, align 8, !tbaa !106
  %23 = getelementptr inbounds nuw %struct.ssl_session_st, ptr %9, i32 0, i32 0
  store i32 %22, ptr %23, align 8, !tbaa !141
  %24 = load i64, ptr %7, align 8, !tbaa !9
  %25 = icmp ule i64 %24, 32
  %26 = zext i1 %25 to i32
  %27 = icmp ne i32 %26, 0
  %28 = xor i1 %27, true
  %29 = xor i1 %28, true
  %30 = zext i1 %29 to i32
  %31 = sext i32 %30 to i64
  %32 = call i64 @llvm.expect.i64(i64 %31, i64 1)
  %33 = icmp ne i64 %32, 0
  br i1 %33, label %35, label %34

34:                                               ; preds = %19
  store ptr null, ptr %4, align 8
  store i32 1, ptr %10, align 4
  br label %81

35:                                               ; preds = %19
  %36 = getelementptr inbounds nuw %struct.ssl_session_st, ptr %9, i32 0, i32 5
  %37 = getelementptr inbounds [32 x i8], ptr %36, i64 0, i64 0
  %38 = load ptr, ptr %6, align 8, !tbaa !127
  %39 = load i64, ptr %7, align 8, !tbaa !9
  call void @llvm.memcpy.p0.p0.i64(ptr align 8 %37, ptr align 1 %38, i64 %39, i1 false)
  %40 = load i64, ptr %7, align 8, !tbaa !9
  %41 = getelementptr inbounds nuw %struct.ssl_session_st, ptr %9, i32 0, i32 4
  store i64 %40, ptr %41, align 8, !tbaa !103
  %42 = load ptr, ptr %5, align 8, !tbaa !25
  %43 = getelementptr inbounds nuw %struct.ssl_connection_st, ptr %42, i32 0, i32 91
  %44 = load ptr, ptr %43, align 8, !tbaa !109
  %45 = getelementptr inbounds nuw %struct.ssl_ctx_st, ptr %44, i32 0, i32 72
  %46 = load ptr, ptr %45, align 8, !tbaa !110
  %47 = call i32 @CRYPTO_THREAD_read_lock(ptr noundef %46)
  %48 = icmp ne i32 %47, 0
  br i1 %48, label %50, label %49

49:                                               ; preds = %35
  store ptr null, ptr %4, align 8
  store i32 1, ptr %10, align 4
  br label %81

50:                                               ; preds = %35
  %51 = load ptr, ptr %5, align 8, !tbaa !25
  %52 = getelementptr inbounds nuw %struct.ssl_connection_st, ptr %51, i32 0, i32 91
  %53 = load ptr, ptr %52, align 8, !tbaa !109
  %54 = getelementptr inbounds nuw %struct.ssl_ctx_st, ptr %53, i32 0, i32 6
  %55 = load ptr, ptr %54, align 8, !tbaa !145
  %56 = call ptr @lh_SSL_SESSION_retrieve(ptr noundef %55, ptr noundef %9)
  store ptr %56, ptr %8, align 8, !tbaa !3
  %57 = load ptr, ptr %8, align 8, !tbaa !3
  %58 = icmp ne ptr %57, null
  br i1 %58, label %59, label %62

59:                                               ; preds = %50
  %60 = load ptr, ptr %8, align 8, !tbaa !3
  %61 = call i32 @SSL_SESSION_up_ref(ptr noundef %60)
  br label %62

62:                                               ; preds = %59, %50
  %63 = load ptr, ptr %5, align 8, !tbaa !25
  %64 = getelementptr inbounds nuw %struct.ssl_connection_st, ptr %63, i32 0, i32 91
  %65 = load ptr, ptr %64, align 8, !tbaa !109
  %66 = getelementptr inbounds nuw %struct.ssl_ctx_st, ptr %65, i32 0, i32 72
  %67 = load ptr, ptr %66, align 8, !tbaa !110
  %68 = call i32 @CRYPTO_THREAD_unlock(ptr noundef %67)
  %69 = load ptr, ptr %8, align 8, !tbaa !3
  %70 = icmp eq ptr %69, null
  br i1 %70, label %71, label %80

71:                                               ; preds = %62
  %72 = load ptr, ptr %5, align 8, !tbaa !25
  %73 = getelementptr inbounds nuw %struct.ssl_connection_st, ptr %72, i32 0, i32 91
  %74 = load ptr, ptr %73, align 8, !tbaa !109
  %75 = load ptr, ptr %5, align 8, !tbaa !25
  %76 = getelementptr inbounds nuw %struct.ssl_connection_st, ptr %75, i32 0, i32 91
  %77 = load ptr, ptr %76, align 8, !tbaa !109
  %78 = getelementptr inbounds nuw %struct.ssl_ctx_st, ptr %77, i32 0, i32 15
  %79 = getelementptr inbounds nuw %struct.anon.4, ptr %78, i32 0, i32 6
  call void @ssl_tsan_counter(ptr noundef %74, ptr noundef %79)
  br label %80

80:                                               ; preds = %71, %62
  store i32 0, ptr %10, align 4
  br label %81

81:                                               ; preds = %80, %49, %34
  call void @llvm.lifetime.end.p0(i64 928, ptr %9) #9
  %82 = load i32, ptr %10, align 4
  switch i32 %82, label %155 [
    i32 0, label %83
  ]

83:                                               ; preds = %81
  br label %84

84:                                               ; preds = %83, %3
  %85 = load ptr, ptr %8, align 8, !tbaa !3
  %86 = icmp eq ptr %85, null
  br i1 %86, label %87, label %153

87:                                               ; preds = %84
  %88 = load ptr, ptr %5, align 8, !tbaa !25
  %89 = getelementptr inbounds nuw %struct.ssl_connection_st, ptr %88, i32 0, i32 91
  %90 = load ptr, ptr %89, align 8, !tbaa !109
  %91 = getelementptr inbounds nuw %struct.ssl_ctx_st, ptr %90, i32 0, i32 14
  %92 = load ptr, ptr %91, align 8, !tbaa !146
  %93 = icmp ne ptr %92, null
  br i1 %93, label %94, label %153

94:                                               ; preds = %87
  call void @llvm.lifetime.start.p0(i64 4, ptr %11) #9
  store i32 1, ptr %11, align 4, !tbaa !11
  %95 = load ptr, ptr %5, align 8, !tbaa !25
  %96 = getelementptr inbounds nuw %struct.ssl_connection_st, ptr %95, i32 0, i32 91
  %97 = load ptr, ptr %96, align 8, !tbaa !109
  %98 = getelementptr inbounds nuw %struct.ssl_ctx_st, ptr %97, i32 0, i32 14
  %99 = load ptr, ptr %98, align 8, !tbaa !146
  %100 = load ptr, ptr %5, align 8, !tbaa !25
  %101 = getelementptr inbounds nuw %struct.ssl_connection_st, ptr %100, i32 0, i32 1
  %102 = load ptr, ptr %101, align 8, !tbaa !147
  %103 = load ptr, ptr %6, align 8, !tbaa !127
  %104 = load i64, ptr %7, align 8, !tbaa !9
  %105 = trunc i64 %104 to i32
  %106 = call ptr %99(ptr noundef %102, ptr noundef %103, i32 noundef %105, ptr noundef %11)
  store ptr %106, ptr %8, align 8, !tbaa !3
  %107 = load ptr, ptr %8, align 8, !tbaa !3
  %108 = icmp ne ptr %107, null
  br i1 %108, label %109, label %149

109:                                              ; preds = %94
  %110 = load ptr, ptr %8, align 8, !tbaa !3
  %111 = getelementptr inbounds nuw %struct.ssl_session_st, ptr %110, i32 0, i32 10
  %112 = load i32, ptr %111, align 8, !tbaa !101
  %113 = icmp ne i32 %112, 0
  br i1 %113, label %114, label %120

114:                                              ; preds = %109
  %115 = load i32, ptr %11, align 4, !tbaa !11
  %116 = icmp ne i32 %115, 0
  br i1 %116, label %119, label %117

117:                                              ; preds = %114
  %118 = load ptr, ptr %8, align 8, !tbaa !3
  call void @SSL_SESSION_free(ptr noundef %118)
  br label %119

119:                                              ; preds = %117, %114
  store ptr null, ptr %4, align 8
  store i32 1, ptr %10, align 4
  br label %150

120:                                              ; preds = %109
  %121 = load ptr, ptr %5, align 8, !tbaa !25
  %122 = getelementptr inbounds nuw %struct.ssl_connection_st, ptr %121, i32 0, i32 91
  %123 = load ptr, ptr %122, align 8, !tbaa !109
  %124 = load ptr, ptr %5, align 8, !tbaa !25
  %125 = getelementptr inbounds nuw %struct.ssl_connection_st, ptr %124, i32 0, i32 91
  %126 = load ptr, ptr %125, align 8, !tbaa !109
  %127 = getelementptr inbounds nuw %struct.ssl_ctx_st, ptr %126, i32 0, i32 15
  %128 = getelementptr inbounds nuw %struct.anon.4, ptr %127, i32 0, i32 10
  call void @ssl_tsan_counter(ptr noundef %123, ptr noundef %128)
  %129 = load i32, ptr %11, align 4, !tbaa !11
  %130 = icmp ne i32 %129, 0
  br i1 %130, label %131, label %134

131:                                              ; preds = %120
  %132 = load ptr, ptr %8, align 8, !tbaa !3
  %133 = call i32 @SSL_SESSION_up_ref(ptr noundef %132)
  br label %134

134:                                              ; preds = %131, %120
  %135 = load ptr, ptr %5, align 8, !tbaa !25
  %136 = getelementptr inbounds nuw %struct.ssl_connection_st, ptr %135, i32 0, i32 91
  %137 = load ptr, ptr %136, align 8, !tbaa !109
  %138 = getelementptr inbounds nuw %struct.ssl_ctx_st, ptr %137, i32 0, i32 10
  %139 = load i32, ptr %138, align 8, !tbaa !144
  %140 = and i32 %139, 512
  %141 = icmp eq i32 %140, 0
  br i1 %141, label %142, label %148

142:                                              ; preds = %134
  %143 = load ptr, ptr %5, align 8, !tbaa !25
  %144 = getelementptr inbounds nuw %struct.ssl_connection_st, ptr %143, i32 0, i32 91
  %145 = load ptr, ptr %144, align 8, !tbaa !109
  %146 = load ptr, ptr %8, align 8, !tbaa !3
  %147 = call i32 @SSL_CTX_add_session(ptr noundef %145, ptr noundef %146)
  br label %148

148:                                              ; preds = %142, %134
  br label %149

149:                                              ; preds = %148, %94
  store i32 0, ptr %10, align 4
  br label %150

150:                                              ; preds = %149, %119
  call void @llvm.lifetime.end.p0(i64 4, ptr %11) #9
  %151 = load i32, ptr %10, align 4
  switch i32 %151, label %155 [
    i32 0, label %152
  ]

152:                                              ; preds = %150
  br label %153

153:                                              ; preds = %152, %87, %84
  %154 = load ptr, ptr %8, align 8, !tbaa !3
  store ptr %154, ptr %4, align 8
  store i32 1, ptr %10, align 4
  br label %155

155:                                              ; preds = %153, %150, %81
  call void @llvm.lifetime.end.p0(i64 8, ptr %8) #9
  %156 = load ptr, ptr %4, align 8
  ret ptr %156
}