; Function Attrs: nounwind uwtable
define ptr @lookup_sess_in_cache(ptr noundef readonly captures(none) %0, ptr noundef %1, i64 noundef %2) local_unnamed_addr #3 {
  %4 = alloca %struct.ssl_session_st, align 8
  %5 = alloca i32, align 4
  %6 = getelementptr inbounds nuw i8, ptr %0, i64 2952
  %7 = load ptr, ptr %6, align 8, !tbaa !98
  %8 = getelementptr inbounds nuw i8, ptr %7, i64 80
  %9 = load i32, ptr %8, align 8, !tbaa !132
  %10 = and i32 %9, 256
  %11 = icmp eq i32 %10, 0
  br i1 %11, label %12, label %.thread50

12:                                               ; preds = %3
  call void @llvm.lifetime.start.p0(i64 928, ptr nonnull %4) #11
  %13 = getelementptr inbounds nuw i8, ptr %0, i64 72
  %14 = load i32, ptr %13, align 8, !tbaa !95
  store i32 %14, ptr %4, align 8, !tbaa !129
  %15 = icmp ult i64 %2, 33
  br i1 %15, label %16, label %34, !prof !133

16:                                               ; preds = %12
  %17 = getelementptr inbounds nuw i8, ptr %4, i64 600
  call void @llvm.memcpy.p0.p0.i64(ptr nonnull align 8 %17, ptr align 1 %1, i64 %2, i1 false)
  %18 = getelementptr inbounds nuw i8, ptr %4, i64 592
  store i64 %2, ptr %18, align 8, !tbaa !91
  %19 = getelementptr inbounds nuw i8, ptr %7, i64 1024
  %20 = load ptr, ptr %19, align 8, !tbaa !99
  %21 = tail call i32 @CRYPTO_THREAD_read_lock(ptr noundef %20) #11
  %.not = icmp eq i32 %21, 0
  br i1 %.not, label %34, label %22

22:                                               ; preds = %16
  %23 = load ptr, ptr %6, align 8, !tbaa !98
  %24 = getelementptr inbounds nuw i8, ptr %23, i64 48
  %25 = load ptr, ptr %24, align 8, !tbaa !134
  %26 = call ptr @OPENSSL_LH_retrieve(ptr noundef %25, ptr noundef nonnull %4) #11
  %.not41 = icmp eq ptr %26, null
  br i1 %.not41, label %.thread52, label %35

.thread52:                                        ; preds = %22
  %27 = load ptr, ptr %6, align 8, !tbaa !98
  %28 = getelementptr inbounds nuw i8, ptr %27, i64 1024
  %29 = load ptr, ptr %28, align 8, !tbaa !99
  %30 = call i32 @CRYPTO_THREAD_unlock(ptr noundef %29) #11
  %31 = load ptr, ptr %6, align 8, !tbaa !98
  %32 = getelementptr inbounds nuw i8, ptr %31, i64 144
  %33 = atomicrmw add ptr %32, i32 1 monotonic, align 4
  call void @llvm.lifetime.end.p0(i64 928, ptr nonnull %4) #11
  %.pre = load ptr, ptr %6, align 8, !tbaa !98
  br label %.thread50

34:                                               ; preds = %16, %12
  call void @llvm.lifetime.end.p0(i64 928, ptr nonnull %4) #11
  br label %73

35:                                               ; preds = %22
  %36 = getelementptr inbounds nuw i8, ptr %26, i64 920
  %37 = atomicrmw add ptr %36, i32 1 monotonic, align 4
  %38 = load ptr, ptr %6, align 8, !tbaa !98
  %39 = getelementptr inbounds nuw i8, ptr %38, i64 1024
  %40 = load ptr, ptr %39, align 8, !tbaa !99
  %41 = call i32 @CRYPTO_THREAD_unlock(ptr noundef %40) #11
  call void @llvm.lifetime.end.p0(i64 928, ptr nonnull %4) #11
  br label %73

.thread50:                                        ; preds = %3, %.thread52
  %42 = phi ptr [ %7, %3 ], [ %.pre, %.thread52 ]
  %43 = getelementptr inbounds nuw i8, ptr %42, i64 112
  %44 = load ptr, ptr %43, align 8, !tbaa !135
  %.not42 = icmp eq ptr %44, null
  br i1 %.not42, label %73, label %45

45:                                               ; preds = %.thread50
  call void @llvm.lifetime.start.p0(i64 4, ptr nonnull %5) #11
  store i32 1, ptr %5, align 4, !tbaa !92
  %46 = getelementptr inbounds nuw i8, ptr %0, i64 64
  %47 = load ptr, ptr %46, align 8, !tbaa !136
  %48 = trunc i64 %2 to i32
  %49 = call ptr %44(ptr noundef %47, ptr noundef %1, i32 noundef %48, ptr noundef nonnull %5) #11
  %.not43 = icmp eq ptr %49, null
  br i1 %.not43, label %72, label %50

50:                                               ; preds = %45
  %51 = getelementptr inbounds nuw i8, ptr %49, i64 688
  %52 = load i32, ptr %51, align 8, !tbaa !90
  %.not44 = icmp eq i32 %52, 0
  br i1 %.not44, label %56, label %53

53:                                               ; preds = %50
  %54 = load i32, ptr %5, align 4, !tbaa !92
  %.not46 = icmp eq i32 %54, 0
  br i1 %.not46, label %55, label %.critedge

55:                                               ; preds = %53
  call void @SSL_SESSION_free(ptr noundef nonnull %49)
  br label %.critedge

56:                                               ; preds = %50
  %57 = load ptr, ptr %6, align 8, !tbaa !98
  %58 = getelementptr inbounds nuw i8, ptr %57, i64 160
  %59 = atomicrmw add ptr %58, i32 1 monotonic, align 4
  %60 = load i32, ptr %5, align 4, !tbaa !92
  %.not45 = icmp eq i32 %60, 0
  br i1 %.not45, label %64, label %61

61:                                               ; preds = %56
  %62 = getelementptr inbounds nuw i8, ptr %49, i64 920
  %63 = atomicrmw add ptr %62, i32 1 monotonic, align 4
  br label %64

64:                                               ; preds = %61, %56
  %65 = load ptr, ptr %6, align 8, !tbaa !98
  %66 = getelementptr inbounds nuw i8, ptr %65, i64 80
  %67 = load i32, ptr %66, align 8, !tbaa !132
  %68 = and i32 %67, 512
  %69 = icmp eq i32 %68, 0
  br i1 %69, label %70, label %72

70:                                               ; preds = %64
  %71 = call i32 @SSL_CTX_add_session(ptr noundef nonnull %65, ptr noundef nonnull %49)
  br label %72

72:                                               ; preds = %45, %70, %64
  call void @llvm.lifetime.end.p0(i64 4, ptr nonnull %5) #11
  br label %73

.critedge:                                        ; preds = %53, %55
  call void @llvm.lifetime.end.p0(i64 4, ptr nonnull %5) #11
  br label %73

73:                                               ; preds = %35, %34, %.thread50, %72, %.critedge
  %.237 = phi ptr [ null, %34 ], [ null, %.critedge ], [ %49, %72 ], [ null, %.thread50 ], [ %26, %35 ]
  ret ptr %.237
}